; Function Attrs: mustprogress uwtable
define hidden void @_ZN4cvc58internal6theory4sets14TheorySetsRels17getRepresentativeENS0_12NodeTemplateILb1EEE(ptr noalias nocapture writeonly sret(%"class.cvc5::internal::NodeTemplate") align 8 %agg.result, ptr nocapture noundef nonnull readonly align 8 dereferenceable(616) %this, ptr nocapture noundef readonly %t) local_unnamed_addr #3 align 2 personality ptr @__gxx_personality_v0 {
entry:
  %ref.tmp = alloca %"class.cvc5::internal::NodeTemplate.531", align 8
  %agg.tmp = alloca %"class.cvc5::internal::NodeTemplate.531", align 8
  %d_state = getelementptr inbounds i8, ptr %this, i64 32
  %0 = load ptr, ptr %d_state, align 8
  %1 = load ptr, ptr %t, align 8
  store ptr %1, ptr %agg.tmp, align 8
  %vtable = load ptr, ptr %0, align 8
  %vfn = getelementptr inbounds i8, ptr %vtable, i64 32
  %2 = load ptr, ptr %vfn, align 8
  call void %2(ptr nonnull sret(%"class.cvc5::internal::NodeTemplate.531") align 8 %ref.tmp, ptr noundef nonnull align 8 dereferenceable(80) %0, ptr noundef nonnull %agg.tmp)
  %3 = load ptr, ptr %ref.tmp, align 8
  store ptr %3, ptr %agg.result, align 8
  %bf.load.i.i = load i64, ptr %3, align 8
  %bf.lshr.i.i = lshr i64 %bf.load.i.i, 40
  %4 = trunc i64 %bf.lshr.i.i to i32
  %bf.cast.i.i = and i32 %4, 1048575
  %cmp.i.i = icmp ult i32 %bf.cast.i.i, 1048574
  br i1 %cmp.i.i, label %if.then.i.i, label %if.else.i.i

if.then.i.i:                                      ; preds = %entry
  %bf.value.i.i = add i64 %bf.load.i.i, 1099511627776
  %bf.shl.i.i = and i64 %bf.value.i.i, 1152920405095219200
  %bf.clear7.i.i = and i64 %bf.load.i.i, -1152920405095219201
  %bf.set.i.i = or disjoint i64 %bf.shl.i.i, %bf.clear7.i.i
  store i64 %bf.set.i.i, ptr %3, align 8
  br label %invoke.cont3

if.else.i.i:                                      ; preds = %entry
  %cmp12.i.i = icmp eq i32 %bf.cast.i.i, 1048574
  br i1 %cmp12.i.i, label %if.then13.i.i, label %invoke.cont3

if.then13.i.i:                                    ; preds = %if.else.i.i
  %bf.set23.i.i = or i64 %bf.load.i.i, 1152920405095219200
  store i64 %bf.set23.i.i, ptr %3, align 8
  call void @_ZN4cvc58internal4expr9NodeValue20markRefCountMaxedOutEv(ptr noundef nonnull align 8 dereferenceable(16) %3)
  br label %invoke.cont3

invoke.cont3:                                     ; preds = %if.then13.i.i, %if.else.i.i, %if.then.i.i
  ret void
}